; ModuleID = 'source-C-CXX/51/4551.c'
source_filename = "source-C-CXX/51/4551.c"
target datalayout = "e-m:e-p270:32:32-p271:32:32-p272:64:64-i64:64-f80:128-n8:16:32:64-S128"
target triple = "x86_64-pc-linux-gnu"

@.str = private unnamed_addr constant [5 x i8] c"%d%d\00", align 1
@.str.1 = private unnamed_addr constant [3 x i8] c"%d\00", align 1
@.str.2 = private unnamed_addr constant [4 x i8] c" %d\00", align 1

; Function Attrs: nofree nounwind sspstrong uwtable
define dso_local i32 @main() local_unnamed_addr #0 {
  %1 = alloca [100 x i32], align 16
  %2 = alloca i32, align 4
  %3 = alloca i32, align 4
  %4 = bitcast [100 x i32]* %1 to i8*
  call void @llvm.lifetime.start.p0i8(i64 400, i8* nonnull %4) #3
  %5 = bitcast i32* %2 to i8*
  call void @llvm.lifetime.start.p0i8(i64 4, i8* nonnull %5) #3
  %6 = bitcast i32* %3 to i8*
  call void @llvm.lifetime.start.p0i8(i64 4, i8* nonnull %6) #3
  %7 = call i32 (i8*, ...) @__isoc99_scanf(i8* getelementptr inbounds ([5 x i8], [5 x i8]* @.str, i64 0, i64 0), i32* nonnull %2, i32* nonnull %3)
  %8 = load i32, i32* %2, align 4, !tbaa !5
  %9 = icmp slt i32 %8, 1
  br i1 %9, label %18, label %10

10:                                               ; preds = %0, %10
  %11 = phi i64 [ %14, %10 ], [ 1, %0 ]
  %12 = getelementptr inbounds [100 x i32], [100 x i32]* %1, i64 0, i64 %11
  %13 = call i32 (i8*, ...) @__isoc99_scanf(i8* getelementptr inbounds ([3 x i8], [3 x i8]* @.str.1, i64 0, i64 0), i32* nonnull %12)
  %14 = add nuw nsw i64 %11, 1
  %15 = load i32, i32* %2, align 4, !tbaa !5
  %16 = sext i32 %15 to i64
  %17 = icmp slt i64 %11, %16
  br i1 %17, label %10, label %18, !llvm.loop !9

18:                                               ; preds = %10, %0
  %19 = phi i32 [ %8, %0 ], [ %15, %10 ]
  %20 = add nsw i32 %19, 1
  %21 = load i32, i32* %3, align 4, !tbaa !5
  %22 = sub i32 %20, %21
  %23 = sext i32 %22 to i64
  %24 = getelementptr inbounds [100 x i32], [100 x i32]* %1, i64 0, i64 %23
  %25 = load i32, i32* %24, align 4, !tbaa !5
  %26 = call i32 (i8*, ...) @printf(i8* nonnull dereferenceable(1) getelementptr inbounds ([3 x i8], [3 x i8]* @.str.1, i64 0, i64 0), i32 %25)
  %27 = load i32, i32* %2, align 4, !tbaa !5
  %28 = add nsw i32 %27, 2
  %29 = load i32, i32* %3, align 4, !tbaa !5
  %30 = sub i32 %28, %29
  %31 = sext i32 %30 to i64
  %32 = getelementptr inbounds [100 x i32], [100 x i32]* %1, i64 0, i64 %31
  %33 = icmp slt i32 %29, 2
  br i1 %33, label %46, label %34

34:                                               ; preds = %18, %34
  %35 = phi i64 [ %39, %34 ], [ 0, %18 ]
  %36 = getelementptr inbounds i32, i32* %32, i64 %35
  %37 = load i32, i32* %36, align 4, !tbaa !5
  %38 = call i32 (i8*, ...) @printf(i8* nonnull dereferenceable(1) getelementptr inbounds ([4 x i8], [4 x i8]* @.str.2, i64 0, i64 0), i32 %37)
  %39 = add nuw nsw i64 %35, 1
  %40 = load i32, i32* %3, align 4, !tbaa !5
  %41 = add nsw i32 %40, -2
  %42 = sext i32 %41 to i64
  %43 = icmp slt i64 %35, %42
  br i1 %43, label %34, label %44, !llvm.loop !11

44:                                               ; preds = %34
  %45 = load i32, i32* %2, align 4, !tbaa !5
  br label %46

46:                                               ; preds = %44, %18
  %47 = phi i32 [ %40, %44 ], [ %29, %18 ]
  %48 = phi i32 [ %45, %44 ], [ %27, %18 ]
  %49 = getelementptr inbounds [100 x i32], [100 x i32]* %1, i64 0, i64 1
  %50 = xor i32 %47, -1
  %51 = add i32 %48, %50
  %52 = icmp slt i32 %51, 0
  br i1 %52, label %65, label %53

53:                                               ; preds = %46, %53
  %54 = phi i64 [ %58, %53 ], [ 0, %46 ]
  %55 = getelementptr inbounds i32, i32* %49, i64 %54
  %56 = load i32, i32* %55, align 4, !tbaa !5
  %57 = call i32 (i8*, ...) @printf(i8* nonnull dereferenceable(1) getelementptr inbounds ([4 x i8], [4 x i8]* @.str.2, i64 0, i64 0), i32 %56)
  %58 = add nuw nsw i64 %54, 1
  %59 = load i32, i32* %2, align 4, !tbaa !5
  %60 = load i32, i32* %3, align 4, !tbaa !5
  %61 = xor i32 %60, -1
  %62 = add i32 %59, %61
  %63 = sext i32 %62 to i64
  %64 = icmp slt i64 %54, %63
  br i1 %64, label %53, label %65, !llvm.loop !12

65:                                               ; preds = %53, %46
  call void @llvm.lifetime.end.p0i8(i64 4, i8* nonnull %6) #3
  call void @llvm.lifetime.end.p0i8(i64 4, i8* nonnull %5) #3
  call void @llvm.lifetime.end.p0i8(i64 400, i8* nonnull %4) #3
  ret i32 0
}

; Function Attrs: argmemonly mustprogress nofree nosync nounwind willreturn
declare void @llvm.lifetime.start.p0i8(i64 immarg, i8* nocapture) #1

; Function Attrs: nofree nounwind
declare noundef i32 @__isoc99_scanf(i8* nocapture noundef readonly, ...) local_unnamed_addr #2

; Function Attrs: nofree nounwind
declare noundef i32 @printf(i8* nocapture noundef readonly, ...) local_unnamed_addr #2

; Function Attrs: argmemonly mustprogress nofree nosync nounwind willreturn
declare void @llvm.lifetime.end.p0i8(i64 immarg, i8* nocapture) #1


!llvm.module.flags = !{!0, !1, !2, !3}
!llvm.ident = !{!4}

!0 = !{i32 1, !"wchar_size", i32 4}
!1 = !{i32 7, !"PIC Level", i32 2}
!2 = !{i32 7, !"PIE Level", i32 2}
!3 = !{i32 7, !"uwtable", i32 1}
!4 = !{!"clang version 13.0.0"}
!5 = !{!6, !6, i64 0}
!6 = !{!"int", !7, i64 0}
!7 = !{!"omnipotent char", !8, i64 0}
!8 = !{!"Simple C/C++ TBAA"}
!9 = distinct !{!9, !10}
!10 = !{!"llvm.loop.mustprogress"}
!11 = distinct !{!11, !10}
!12 = distinct !{!12, !10}
